target datalayout = "e-m:e-p270:32:32-p271:32:32-p272:64:64-i64:64-i128:128-f80:128-n8:16:32:64-S128"
target triple = "x86_64-pc-linux-gnu"

%"struct.icu_77::FormattedStringBuilder::Field" = type { i8 }
%"class.icu_77::FormattedStringBuilder" = type { i8, %"union.icu_77::FormattedStringBuilder::ValueOrHeapArray", %"union.icu_77::FormattedStringBuilder::ValueOrHeapArray.0", i32, i32 }
%"union.icu_77::FormattedStringBuilder::ValueOrHeapArray" = type { %struct.anon, [64 x i8] }
%struct.anon = type { ptr, i32 }
%"union.icu_77::FormattedStringBuilder::ValueOrHeapArray.0" = type { %struct.anon.1, [24 x i8] }
%struct.anon.1 = type { ptr, i32 }

; Function Attrs: inlinehint mustprogress nounwind uwtable
define linkonce_odr noundef ptr @_ZNK6icu_7722FormattedStringBuilder11getFieldPtrEv(ptr noundef nonnull align 8 dereferenceable(136) %0) #5 comdat align 2 {
  %2 = alloca ptr, align 8
  store ptr %0, ptr %2, align 8, !tbaa !3
  %3 = load ptr, ptr %2, align 8
  %4 = getelementptr inbounds nuw %"class.icu_77::FormattedStringBuilder", ptr %3, i32 0, i32 0
  %5 = load i8, ptr %4, align 8, !tbaa !8, !range !14, !noundef !15
  %6 = trunc i8 %5 to i1
  br i1 %6, label %7, label %11

7:                                                ; preds = %1
  %8 = getelementptr inbounds nuw %"class.icu_77::FormattedStringBuilder", ptr %3, i32 0, i32 2
  %9 = getelementptr inbounds nuw %struct.anon.1, ptr %8, i32 0, i32 0
  %10 = load ptr, ptr %9, align 8, !tbaa !16
  br label %14

11:                                               ; preds = %1
  %12 = getelementptr inbounds nuw %"class.icu_77::FormattedStringBuilder", ptr %3, i32 0, i32 2
  %13 = getelementptr inbounds [40 x %"struct.icu_77::FormattedStringBuilder::Field"], ptr %12, i64 0, i64 0
  br label %14

14:                                               ; preds = %11, %7
  %15 = phi ptr [ %10, %7 ], [ %13, %11 ]
  ret ptr %15
}

; Function Attrs: inlinehint mustprogress nounwind uwtable
define linkonce_odr noundef ptr @_ZNK6icu_7722FormattedStringBuilder10getCharPtrEv(ptr noundef nonnull align 8 dereferenceable(136) %0) #5 comdat align 2 {
  %2 = alloca ptr, align 8
  store ptr %0, ptr %2, align 8, !tbaa !3
  %3 = load ptr, ptr %2, align 8
  %4 = getelementptr inbounds nuw %"class.icu_77::FormattedStringBuilder", ptr %3, i32 0, i32 0
  %5 = load i8, ptr %4, align 8, !tbaa !8, !range !14, !noundef !15
  %6 = trunc i8 %5 to i1
  br i1 %6, label %7, label %11

7:                                                ; preds = %1
  %8 = getelementptr inbounds nuw %"class.icu_77::FormattedStringBuilder", ptr %3, i32 0, i32 1
  %9 = getelementptr inbounds nuw %struct.anon, ptr %8, i32 0, i32 0
  %10 = load ptr, ptr %9, align 8, !tbaa !16
  br label %14

11:                                               ; preds = %1
  %12 = getelementptr inbounds nuw %"class.icu_77::FormattedStringBuilder", ptr %3, i32 0, i32 1
  %13 = getelementptr inbounds [40 x i16], ptr %12, i64 0, i64 0
  br label %14

14:                                               ; preds = %11, %7
  %15 = phi ptr [ %10, %7 ], [ %13, %11 ]
  ret ptr %15
}

; Function Attrs: inlinehint mustprogress nounwind uwtable
define linkonce_odr noundef zeroext i1 @_ZNK6icu_7722FormattedStringBuilder5FieldneERKS1_(ptr noundef nonnull align 1 dereferenceable(1) %0, ptr noundef nonnull align 1 dereferenceable(1) %1) #5 comdat align 2 {
  %3 = alloca ptr, align 8
  %4 = alloca ptr, align 8
  store ptr %0, ptr %3, align 8, !tbaa !20
  store ptr %1, ptr %4, align 8, !tbaa !20
  %5 = load ptr, ptr %3, align 8
  %6 = getelementptr inbounds nuw %"struct.icu_77::FormattedStringBuilder::Field", ptr %5, i32 0, i32 0
  %7 = load i8, ptr %6, align 1, !tbaa !46
  %8 = zext i8 %7 to i32
  %9 = load ptr, ptr %4, align 8, !tbaa !20
  %10 = getelementptr inbounds nuw %"struct.icu_77::FormattedStringBuilder::Field", ptr %9, i32 0, i32 0
  %11 = load i8, ptr %10, align 1, !tbaa !46
  %12 = zext i8 %11 to i32
  %13 = icmp ne i32 %8, %12
  ret i1 %13
}

; Function Attrs: inlinehint mustprogress nounwind uwtable
define linkonce_odr i8 @_ZNK6icu_7722FormattedStringBuilder7fieldAtEi(ptr noundef nonnull align 8 dereferenceable(136) %0, i32 noundef %1) #5 comdat align 2 {
  %3 = alloca %"struct.icu_77::FormattedStringBuilder::Field", align 1
  %4 = alloca ptr, align 8
  %5 = alloca i32, align 4
  store ptr %0, ptr %4, align 8, !tbaa !3
  store i32 %1, ptr %5, align 4, !tbaa !17
  %6 = load ptr, ptr %4, align 8
  %7 = call noundef ptr @_ZNK6icu_7722FormattedStringBuilder11getFieldPtrEv(ptr noundef nonnull align 8 dereferenceable(136) %6)
  %8 = getelementptr inbounds nuw %"class.icu_77::FormattedStringBuilder", ptr %6, i32 0, i32 3
  %9 = load i32, ptr %8, align 8, !tbaa !12
  %10 = load i32, ptr %5, align 4, !tbaa !17
  %11 = add nsw i32 %9, %10
  %12 = sext i32 %11 to i64
  %13 = getelementptr inbounds %"struct.icu_77::FormattedStringBuilder::Field", ptr %7, i64 %12
  call void @llvm.memcpy.p0.p0.i64(ptr align 1 %3, ptr align 1 %13, i64 1, i1 false), !tbaa.struct !31
  %14 = getelementptr inbounds nuw %"struct.icu_77::FormattedStringBuilder::Field", ptr %3, i32 0, i32 0
  %15 = load i8, ptr %14, align 1
  ret i8 %15
}

; Function Attrs: inlinehint mustprogress nounwind uwtable
define linkonce_odr noundef zeroext i16 @_ZNK6icu_7722FormattedStringBuilder6charAtEi(ptr noundef nonnull align 8 dereferenceable(136) %0, i32 noundef %1) #5 comdat align 2 {
  %3 = alloca ptr, align 8
  %4 = alloca i32, align 4
  store ptr %0, ptr %3, align 8, !tbaa !3
  store i32 %1, ptr %4, align 4, !tbaa !17
  %5 = load ptr, ptr %3, align 8
  %6 = call noundef ptr @_ZNK6icu_7722FormattedStringBuilder10getCharPtrEv(ptr noundef nonnull align 8 dereferenceable(136) %5)
  %7 = getelementptr inbounds nuw %"class.icu_77::FormattedStringBuilder", ptr %5, i32 0, i32 3
  %8 = load i32, ptr %7, align 8, !tbaa !12
  %9 = load i32, ptr %4, align 4, !tbaa !17
  %10 = add nsw i32 %8, %9
  %11 = sext i32 %10 to i64
  %12 = getelementptr inbounds i16, ptr %6, i64 %11
  %13 = load i16, ptr %12, align 2, !tbaa !25
  ret i16 %13
}

; Function Attrs: mustprogress uwtable
define noundef zeroext i1 @_ZNK6icu_7722FormattedStringBuilder13contentEqualsERKS0_(ptr noundef nonnull align 8 dereferenceable(136) %0, ptr noundef nonnull align 8 dereferenceable(136) %1) #3 align 2 {
  %3 = alloca i1, align 1
  %4 = alloca ptr, align 8
  %5 = alloca ptr, align 8
  %6 = alloca i32, align 4
  %7 = alloca i32, align 4
  %8 = alloca %"struct.icu_77::FormattedStringBuilder::Field", align 1
  %9 = alloca %"struct.icu_77::FormattedStringBuilder::Field", align 1
  store ptr %0, ptr %4, align 8, !tbaa !3
  store ptr %1, ptr %5, align 8, !tbaa !3
  %10 = load ptr, ptr %4, align 8
  %11 = getelementptr inbounds nuw %"class.icu_77::FormattedStringBuilder", ptr %10, i32 0, i32 4
  %12 = load i32, ptr %11, align 4, !tbaa !13
  %13 = load ptr, ptr %5, align 8, !tbaa !3
  %14 = getelementptr inbounds nuw %"class.icu_77::FormattedStringBuilder", ptr %13, i32 0, i32 4
  %15 = load i32, ptr %14, align 4, !tbaa !13
  %16 = icmp ne i32 %12, %15
  br i1 %16, label %17, label %18

17:                                               ; preds = %2
  store i1 false, ptr %3, align 1
  br label %53

18:                                               ; preds = %2
  call void @llvm.lifetime.start.p0(i64 4, ptr %6) #11
  store i32 0, ptr %6, align 4, !tbaa !17
  br label %19

19:                                               ; preds = %47, %18
  %20 = load i32, ptr %6, align 4, !tbaa !17
  %21 = getelementptr inbounds nuw %"class.icu_77::FormattedStringBuilder", ptr %10, i32 0, i32 4
  %22 = load i32, ptr %21, align 4, !tbaa !13
  %23 = icmp slt i32 %20, %22
  br i1 %23, label %25, label %24

24:                                               ; preds = %19
  store i32 2, ptr %7, align 4
  br label %50

25:                                               ; preds = %19
  %26 = load i32, ptr %6, align 4, !tbaa !17
  %27 = call noundef zeroext i16 @_ZNK6icu_7722FormattedStringBuilder6charAtEi(ptr noundef nonnull align 8 dereferenceable(136) %10, i32 noundef %26)
  %28 = zext i16 %27 to i32
  %29 = load ptr, ptr %5, align 8, !tbaa !3
  %30 = load i32, ptr %6, align 4, !tbaa !17
  %31 = call noundef zeroext i16 @_ZNK6icu_7722FormattedStringBuilder6charAtEi(ptr noundef nonnull align 8 dereferenceable(136) %29, i32 noundef %30)
  %32 = zext i16 %31 to i32
  %33 = icmp ne i32 %28, %32
  call void @llvm.lifetime.start.p0(i64 1, ptr %8) #11
  call void @llvm.lifetime.start.p0(i64 1, ptr %9) #11
  br i1 %33, label %43, label %34

34:                                               ; preds = %25
  %35 = load i32, ptr %6, align 4, !tbaa !17
  %36 = call i8 @_ZNK6icu_7722FormattedStringBuilder7fieldAtEi(ptr noundef nonnull align 8 dereferenceable(136) %10, i32 noundef %35)
  %37 = getelementptr inbounds nuw %"struct.icu_77::FormattedStringBuilder::Field", ptr %8, i32 0, i32 0
  store i8 %36, ptr %37, align 1
  %38 = load ptr, ptr %5, align 8, !tbaa !3
  %39 = load i32, ptr %6, align 4, !tbaa !17
  %40 = call i8 @_ZNK6icu_7722FormattedStringBuilder7fieldAtEi(ptr noundef nonnull align 8 dereferenceable(136) %38, i32 noundef %39)
  %41 = getelementptr inbounds nuw %"struct.icu_77::FormattedStringBuilder::Field", ptr %9, i32 0, i32 0
  store i8 %40, ptr %41, align 1
  %42 = call noundef zeroext i1 @_ZNK6icu_7722FormattedStringBuilder5FieldneERKS1_(ptr noundef nonnull align 1 dereferenceable(1) %8, ptr noundef nonnull align 1 dereferenceable(1) %9)
  br label %43

43:                                               ; preds = %34, %25
  %44 = phi i1 [ true, %25 ], [ %42, %34 ]
  call void @llvm.lifetime.end.p0(i64 1, ptr %9) #11
  call void @llvm.lifetime.end.p0(i64 1, ptr %8) #11
  br i1 %44, label %45, label %46

45:                                               ; preds = %43
  store i1 false, ptr %3, align 1
  store i32 1, ptr %7, align 4
  br label %50

46:                                               ; preds = %43
  br label %47

47:                                               ; preds = %46
  %48 = load i32, ptr %6, align 4, !tbaa !17
  %49 = add nsw i32 %48, 1
  store i32 %49, ptr %6, align 4, !tbaa !17
  br label %19, !llvm.loop !48

50:                                               ; preds = %45, %24
  call void @llvm.lifetime.end.p0(i64 4, ptr %6) #11
  %51 = load i32, ptr %7, align 4
  switch i32 %51, label %55 [
    i32 2, label %52
    i32 1, label %53
  ]

52:                                               ; preds = %50
  store i1 true, ptr %3, align 1
  br label %53

53:                                               ; preds = %52, %50, %17
  %54 = load i1, ptr %3, align 1
  ret i1 %54

55:                                               ; preds = %50
  unreachable
}