; Function Attrs: mustprogress nofree norecurse nosync nounwind willreturn memory(read, inaccessiblemem: none) uwtable
define noundef zeroext i1 @_ZNK6icu_7722FormattedStringBuilder13contentEqualsERKS0_(ptr noundef nonnull readonly align 8 captures(none) dereferenceable(136) %0, ptr noundef nonnull readonly align 8 captures(none) dereferenceable(136) %1) local_unnamed_addr #9 align 2 {
  %3 = getelementptr inbounds nuw i8, ptr %0, i64 132
  %4 = load i32, ptr %3, align 4, !tbaa !10
  %5 = getelementptr inbounds nuw i8, ptr %1, i64 132
  %6 = load i32, ptr %5, align 4, !tbaa !10
  %.not = icmp eq i32 %4, %6
  br i1 %.not, label %.preheader, label %.critedge

.preheader:                                       ; preds = %2
  %7 = icmp slt i32 %4, 1
  br i1 %7, label %.critedge, label %.lr.ph

.lr.ph:                                           ; preds = %.preheader
  %8 = getelementptr inbounds nuw i8, ptr %0, i64 88
  %9 = load i8, ptr %0, align 8, !tbaa !3, !range !11, !noundef !12
  %10 = trunc nuw i8 %9 to i1
  %11 = getelementptr inbounds nuw i8, ptr %0, i64 8
  %12 = load ptr, ptr %11, align 8
  %13 = select i1 %10, ptr %12, ptr %11
  %14 = getelementptr inbounds nuw i8, ptr %0, i64 128
  %15 = load i32, ptr %14, align 8, !tbaa !9
  %16 = load i8, ptr %1, align 8, !tbaa !3, !range !11, !noundef !12
  %17 = trunc nuw i8 %16 to i1
  %18 = getelementptr inbounds nuw i8, ptr %1, i64 8
  %19 = load ptr, ptr %18, align 8
  %20 = select i1 %17, ptr %19, ptr %18
  %21 = getelementptr inbounds nuw i8, ptr %1, i64 128
  %22 = load i32, ptr %21, align 8, !tbaa !9
  %23 = load ptr, ptr %8, align 8
  %24 = select i1 %10, ptr %23, ptr %8
  %25 = getelementptr inbounds nuw i8, ptr %1, i64 88
  %26 = load ptr, ptr %25, align 8
  %27 = select i1 %17, ptr %26, ptr %25
  %28 = sext i32 %22 to i64
  %29 = sext i32 %15 to i64
  %wide.trip.count = zext nneg i32 %4 to i64
  br label %31

30:                                               ; preds = %38
  %indvars.iv.next = add nuw nsw i64 %indvars.iv, 1
  %exitcond.not = icmp eq i64 %indvars.iv.next, %wide.trip.count
  br i1 %exitcond.not, label %.critedge, label %31, !llvm.loop !34

31:                                               ; preds = %.lr.ph, %30
  %indvars.iv = phi i64 [ 0, %.lr.ph ], [ %indvars.iv.next, %30 ]
  %32 = add nsw i64 %indvars.iv, %29
  %33 = getelementptr inbounds i16, ptr %13, i64 %32
  %34 = load i16, ptr %33, align 2, !tbaa !14
  %35 = add nsw i64 %indvars.iv, %28
  %36 = getelementptr inbounds i16, ptr %20, i64 %35
  %37 = load i16, ptr %36, align 2, !tbaa !14
  %.not13 = icmp eq i16 %34, %37
  br i1 %.not13, label %38, label %.critedge

38:                                               ; preds = %31
  %39 = getelementptr inbounds %"struct.icu_77::FormattedStringBuilder::Field", ptr %24, i64 %32
  %.sroa.0.0.copyload.i = load i8, ptr %39, align 1, !tbaa !13
  %40 = getelementptr inbounds %"struct.icu_77::FormattedStringBuilder::Field", ptr %27, i64 %35
  %.sroa.0.0.copyload.i14 = load i8, ptr %40, align 1, !tbaa !13
  %.not16 = icmp eq i8 %.sroa.0.0.copyload.i, %.sroa.0.0.copyload.i14
  br i1 %.not16, label %30, label %.critedge

.critedge:                                        ; preds = %31, %38, %30, %.preheader, %2
  %.012 = phi i1 [ false, %2 ], [ true, %.preheader ], [ false, %31 ], [ false, %38 ], [ true, %30 ]
  ret i1 %.012
}